(dp0
S'thresh'
p1
F0.020526034972709533
sS'mat'
p2
(lp3
(lp4
F-3.803835400126634
aF-3.861825904546042
aF-3.0578353414402537
aF-3.658377102529625
aF-7.7179271089981825
aF-4.67821706269145
aF-4.111881493014666
aF-7.028875497302974
aF-3.7984118050985356
aF-7.1011961588826
aF-3.78642209185852
aF-2.412699071334232
aF-2.301499784761754
aF-1.686279463518724
aF-8.163703442908593
aF-3.9667254844962376
aF-7.453678224561297
aF-2.554496666081603
aF-3.265863642957682
aF-2.15006111894107
aF-4.4179611269001136
aF-2.942519898379889
aF-4.997779622153056
aF-6.809844357541857
aF-2.6490914574454894
aF-5.970743264358831
aF-3.269235469163364
aa(lp5
F-2.4402369937370696
aF-6.102409171809351
aF-8.22991911653021
aF-8.050126006089615
aF-0.6082712181881083
aF-7.804453341715376
aF-6.053103410825198
aF-8.15689398151532
aF-3.4179811576109302
aF-6.384092426031879
aF-9.854624501095099
aF-2.674027494089084
aF-7.6320821157745895
aF-8.376522590722086
aF-2.7802471834309426
aF-8.658373742863073
aF-10.021678585758265
aF-3.960433598589015
aF-4.907502612721169
aF-6.079214554828884
aF-2.0532331808036126
aF-6.3985505092071095
aF-9.284079642627486
aF-10.021678585758265
aF-3.8174882001224355
aF-9.780516528941376
aF-4.176291335508261
aa(lp6
F-1.865685676818318
aF-9.023287640806327
aF-3.338251208971181
aF-8.77197321252542
aF-2.0135690386673293
aF-9.320539164274258
aF-6.279686455439798
aF-1.709419844283126
aF-3.887993532589147
aF-10.09372905250774
aF-2.547810901298417
aF-3.337378227684836
aF-8.70743469138785
aF-8.889756248181804
aF-1.89426485489558
aF-7.207997674168078
aF-7.726605438376123
aF-3.0545800808209607
aF-5.722173717701153
aF-2.587778503622705
aF-3.68423971248931
aF-9.6341967231293
aF-9.534113264572317
aF-10.013686344834204
aF-5.040673042527532
aF-8.817435586602178
aF-3.010900645456476
aa(lp7
F-3.2380459634208107
aF-6.308650256996438
aF-6.094639189245502
aF-3.923054836100829
aF-2.035277644850409
aF-7.105475867031226
aF-5.64237609468759
aF-8.034451758432697
aF-2.855960737081121
aF-7.650492855545496
aF-7.815572605904944
aF-4.4421066373483145
aF-6.47967225853646
aF-7.052293601570916
aF-2.2440037112511892
aF-7.373739853625905
aF-9.869696339600491
aF-3.990467741719775
aF-5.393117387985385
aF-6.490971813790393
aF-3.9275971220378376
aF-5.30812979109453
aF-6.207845557874474
aF-8.403359270807064
aF-4.547988020261878
aF-9.112010637902975
aF-0.5795102024195892
aa(lp8
F-2.85419364368373
aF-7.083647873096725
aF-3.678660607739561
aF-4.460252097007477
aF-3.646112859718866
aF-5.062725037311026
aF-5.397836981878051
aF-6.181461747404112
aF-5.239887299035866
aF-8.233995836164024
aF-6.910079107412365
aF-3.4529406931205164
aF-3.9052050739002793
aF-2.756705679863663
aF-5.112449928512293
aF-4.717312384580578
aF-6.326312372768573
aF-2.267145917961556
aF-3.483614939475668
aF-3.349496954299353
aF-7.245453046284515
aF-3.4688261158794678
aF-4.195301195727501
aF-4.617829819871247
aF-4.255886834988624
aF-7.501798140732205
aF-0.7211769291518049
aa(lp9
F-2.7511686307292926
aF-8.325146094501784
aF-7.200216497516301
aF-9.146126646571615
aF-2.52933153439909
aF-2.9846316792539596
aF-8.523597033225624
aF-9.101674884000781
aF-2.5657397160975868
aF-8.22983591469746
aF-7.424984744557514
aF-3.879909946430019
aF-8.941332233925602
aF-8.771433197130204
aF-1.747396008617951
aF-4.631279098876809
aF-9.83927382713156
aF-2.3263584270140214
aF-6.843541553577569
aF-3.2662287017874805
aF-2.7168471480072003
aF-8.904964589754726
aF-7.94670965878154
aF-7.933104006725761
aF-5.649619085105135
aF-9.75226245014193
aF-1.1570593850906659
aa(lp10
F-1.1704613200717713
aF-7.630985920767331
aF-7.705787133850029
aF-8.106409617482406
aF-1.808953385727306
aF-7.1365094350028695
aF-4.779914959311108
aF-2.646392497449374
aF-3.094422580397664
aF-9.044679256075336
aF-9.4501443641835
aF-4.117157222600406
aF-7.114769448366463
aF-4.530974797426254
aF-2.2865417362696
aF-7.786639230479124
aF-9.701458792464406
aF-2.618070944839111
aF-5.572022910431035
aF-6.121916002387935
aF-3.5009496184217155
aF-9.775566764618128
aF-7.457714199493293
aF-8.556326488161403
aF-5.171166105409065
aF-9.396077142913224
aF-1.8743603023098356
aa(lp11
F-1.5447761603183319
aF-8.64450586924916
aF-8.26257125855119
aF-8.656201909012351
aF-1.0312785114702119
aF-8.879345460326562
aF-8.939970082142997
aF-6.178181661253984
aF-1.8629864013470896
aF-9.920799335154722
aF-9.664865961017522
aF-5.926428588377823
aF-6.228799753704543
aF-7.27580727001965
aF-2.6326973457328395
aF-7.968954450579595
aF-9.664865961017522
aF-4.930933802544852
aF-6.052205887653913
aF-4.247619262656633
aF-4.696397651556854
aF-10.154414186336227
aF-8.566253672349411
aF-9.731557335516195
aF-5.1675684039767775
aF-8.444892815345145
aF-1.8643989894561672
aa(lp12
F-4.2858313055417145
aF-4.973265545069678
aF-2.812814062930183
aF-3.9944558947640156
aF-3.2716944943736617
aF-3.3869264530871144
aF-3.6544097047427253
aF-8.421356007097783
aF-6.476512524810272
aF-7.061528219166056
aF-3.7670403540408035
aF-2.7517839326295244
aF-3.236015149072304
aF-1.6310153614912302
aF-3.2445740433591883
aF-4.529840354838713
aF-6.417458600392121
aF-3.846721966467106
aF-2.3830933283516096
aF-1.6825670877729233
aF-5.985519411391011
aF-3.645624690114205
aF-8.876544550558378
aF-5.319181713370623
aF-9.160312723689023
aF-5.406040621120627
aF-2.4138638742857537
aa(lp13
F-3.153399268784005
aF-7.530870086922026
aF-7.220715158618186
aF-7.36381600225886
aF-2.960856157918512
aF-7.220715158618186
aF-7.289708030105138
aF-7.36381600225886
aF-3.5202365686608985
aF-7.443858709932396
aF-6.596560849545193
aF-7.36381600225886
aF-7.443858709932396
aF-6.837722906362081
aF-1.3168075918597362
aF-6.265203713590751
aF-7.626180266726351
aF-7.289708030105138
aF-6.291179199994011
aF-7.095552015664181
aF-0.5338559584097798
aF-7.626180266726351
aF-7.626180266726351
aF-7.626180266726351
aF-7.220715158618186
aF-7.626180266726351
aF-5.303792546436125
aa(lp14
F-3.9925505172615154
aF-6.8342122359832835
aF-7.649961738635561
aF-7.188143693976265
aF-1.0181031805232201
aF-6.903892156621273
aF-6.21591294621977
aF-7.4896190885603815
aF-2.3276943469179
aF-8.434080697401233
aF-7.418160124578237
aF-4.714718226562221
aF-7.471269949892185
aF-3.250960427220227
aF-4.244425955374807
aF-6.036185424602863
aF-9.176018042130611
aF-6.558622209296531
aF-5.222853093371289
aF-6.17529822706558
aF-5.781509648619251
aF-7.3354684087331234
aF-6.558622209296531
aF-9.080707862326285
aF-4.34450941393179
aF-8.91365377766312
aF-0.8587647021969473
aa(lp15
F-2.0555253562098517
aF-8.001908176965584
aF-6.3482990462183455
aF-3.2632227275153016
aF-1.9682805994441914
aF-4.898334596494838
aF-7.421315787697491
aF-7.970159478651003
aF-2.4856737969136518
aF-10.154961535988665
aF-5.924888921492342
aF-1.842608212796985
aF-5.468723526911792
aF-8.491456402284289
aF-2.494245240744736
aF-5.4661653264887535
aF-10.33728309278262
aF-5.916837348204794
aF-4.335208366562623
aF-4.390990264321359
aF-4.439213893274191
aF-5.5015304263833205
aF-5.643491715141001
aF-10.272744571645049
aF-2.1409749190014837
aF-8.7145999535985
aF-1.700708144346302
aa(lp16
F-2.0410098166565573
aF-3.948886348644222
aF-7.956550057760052
aF-8.300321596862876
aF-0.9287194230010881
aF-7.613605306633222
aF-6.489513932664127
aF-8.366570982404077
aF-3.0113425689862514
aF-10.01797309393721
aF-8.668046376988194
aF-6.7063878709647415
aF-3.425124273661725
aF-6.311394062723872
aF-2.492102109769786
aF-3.0859434082674992
aF-10.172123773764469
aF-7.291054408530616
aF-5.984997478091401
aF-6.251801965521627
aF-2.5839266867199395
aF-8.498147340192796
aF-7.13957752708776
aF-9.612507985829046
aF-3.2596297404351575
aF-9.289734593565994
aF-2.1263218405725617
aa(lp17
F-3.899817729616923
aF-6.590237699342862
aF-3.4237799708622885
aF-1.7302277529675947
aF-2.455362447161483
aF-5.394918736578575
aF-2.8055792874099774
aF-7.77895529012055
aF-3.640701869183439
aF-5.257538718292757
aF-4.092768701544531
aF-3.9452169105437966
aF-7.149550135235916
aF-5.16176304330954
aF-2.1956387296916415
aF-6.705899200637818
aF-8.254552222002797
aF-6.575779616167632
aF-3.7484235274865263
aF-2.381135168594067
aF-5.00861011861619
aF-5.843342714898051
aF-7.803150018707607
aF-9.778047704636172
aF-3.88859959764195
aF-8.128258496678505
aF-1.2647562326844504
aa(lp18
F-5.261646361208324
aF-4.533816369494419
aF-4.868748816249308
aF-3.648059465593627
aF-5.383061801875715
aF-2.8261434309506375
aF-5.3811531441729015
aF-6.490170784116643
aF-4.8751333840611615
aF-8.251834447968417
aF-4.875461899175811
aF-3.957300075121516
aF-2.8253818324031728
aF-2.069362219576296
aF-3.1007406871253176
aF-3.6823910858793516
aF-10.593640254115744
aF-2.3420024132707553
aF-4.073608401765615
aF-2.5049402944287116
aF-1.913877634476814
aF-4.014875271407065
aF-3.2950936692592365
aF-6.367536702381287
aF-4.954040808236456
aF-8.15129321874654
aF-1.6956025697735897
aa(lp19
F-2.334894633676358
aF-8.893659651478309
aF-4.9849755473156785
aF-4.296521637187483
aF-1.8713561929793525
aF-6.741897448218848
aF-4.804886134305664
aF-3.9052699663293735
aF-3.5237971177671774
aF-9.729907675678929
aF-8.382834027712319
aF-1.427088904731519
aF-5.621559065372811
aF-8.444709431430406
aF-2.3892716825221907
aF-3.5405384928895987
aF-9.99227194014642
aF-2.3502755230693753
aF-5.209792739187917
aF-3.6986678354977296
aF-3.493688631203773
aF-5.107199869025509
aF-5.762522740918116
aF-9.586806832038254
aF-5.153611910789974
aF-8.86086982865532
aF-2.012351022511156
aa(lp20
F-6.090366752704762
aF-6.435207238996491
aF-6.378048825156543
aF-4.523488454689457
aF-5.972583717048378
aF-6.965835490058661
aF-6.965835490058661
aF-6.870525310254337
aF-6.177378129694391
aF-6.870525310254337
aF-6.703471225591171
aF-6.870525310254337
aF-6.703471225591171
aF-6.6293632534374485
aF-6.132926367123558
aF-6.870525310254337
aF-6.435207238996491
aF-6.870525310254337
aF-6.783513933264707
aF-6.870525310254337
aF-0.0845268610915081
aF-6.870525310254337
aF-4.005730394147822
aF-6.965835490058661
aF-6.965835490058661
aF-6.965835490058661
aF-3.8567745311976673
aa(lp21
F-2.525195801559881
aF-6.058622967700765
aF-4.694787041678583
aF-3.610115296785257
aF-1.4254475981113945
aF-5.24076063941569
aF-5.159741789722122
aF-7.193414912946377
aF-2.8241669472108732
aF-9.955532335318862
aF-4.715771418230849
aF-3.770868113269743
aF-4.480464457026327
aF-4.259418075302841
aF-2.476891676143072
aF-5.241881506336702
aF-8.764138313199787
aF-4.359582565465877
aF-4.0550643683114735
aF-3.285875628599679
aF-4.053810163711742
aF-4.891619605435006
aF-5.884371108552419
aF-10.089063727943385
aF-3.0459869927902288
aF-8.220931279930756
aF-1.2733121123240916
aa(lp22
F-3.3921689512866324
aF-7.895527871128039
aF-4.16710724239357
aF-6.751305071207877
aF-2.0658178398740477
aF-6.400379105096066
aF-7.0312324343722645
aF-2.948424197856251
aF-2.6556874343389785
aF-9.610326299219967
aF-4.507303160769922
aF-4.530303149924701
aF-4.603897370350927
aF-5.7744646547573835
aF-2.3258102647025045
aF-3.41244999238443
aF-6.5587739555682845
aF-7.4381030240891635
aF-2.6377200479182124
aF-1.6857045347780266
aF-3.331179679660203
aF-8.863111897389745
aF-5.6151883870813135
aF-8.898829979991824
aF-4.320937563416231
aF-9.29524525258007
aF-1.5148405220133152
aa(lp23
F-3.3220230148101866
aF-7.904125712065213
aF-4.867895195814898
aF-7.779302647332474
aF-2.5856799184150105
aF-6.547903290599699
aF-7.057240818852988
aF-1.231116437924368
aF-2.821698641127199
aF-10.572510656774991
aF-9.196687595522397
aF-4.2558725827914285
aF-7.015972827149989
aF-7.4890728028018945
aF-2.2859263127842353
aF-7.88693331152484
aF-11.352669214324566
aF-3.755637874270027
aF-4.547349440089342
aF-4.165218214523298
aF-4.2410088068813
aF-9.27322767264473
aF-5.7214574325032
aF-8.638576698766393
aF-4.216764751319452
aF-8.650698059298739
aF-1.120447075933376
aa(lp24
F-3.81834137433688
aF-4.751368898566559
aF-2.657657297362646
aF-5.0343736940161135
aF-3.4492131747416144
aF-4.992339182442021
aF-3.453333335794618
aF-7.74850863188843
aF-3.5605625617856207
aF-9.303138307827535
aF-7.574436974566617
aF-2.760378204399849
aF-4.002490325941216
aF-2.08802088562679
aF-7.29268963763465
aF-3.068139519757609
aF-9.931746967249909
aF-2.2757942171769403
aF-2.1687256582313914
aF-1.9629947353943582
aF-7.478589015776489
aF-8.050375339332167
aF-9.568841473560541
aF-7.693700395393434
aF-4.164598533638558
aF-7.135991185728593
aF-1.8006575304632162
aa(lp25
F-3.2539876105147285
aF-9.219951182681227
aF-9.02579516824027
aF-8.863276238742495
aF-0.23737215046881138
aF-9.29405915483495
aF-8.491712682310013
aF-9.150958311194277
aF-2.158310565194176
aF-9.461113239498115
aF-9.219951182681227
aF-5.756449917682917
aF-7.428191713453172
aF-6.550740814895281
aF-3.9789603113249092
aF-4.902463069144917
aF-9.55642341930244
aF-6.420929203373291
aF-5.8903009523111205
aF-8.526804002121281
aF-7.700125428936814
aF-8.76796605893817
aF-9.55642341930244
aF-9.461113239498115
aF-5.774509099221315
aF-8.968636754400322
aF-4.119649309607388
aa(lp26
F-2.0641601106301457
aF-5.915215447603209
aF-6.909687477018721
aF-6.50789209779952
aF-2.1965996081531713
aF-5.726814844732871
aF-6.396666462689295
aF-1.7439600311913652
aF-1.4849069079830344
aF-8.307031674325197
aF-7.395195292800422
aF-5.319107583219018
aF-7.230892241509146
aF-3.3370640656678003
aF-2.3806391239609295
aF-6.766586633378048
aF-9.280480820039301
aF-4.136412177340366
aF-5.674343792995418
aF-4.772858609972242
aF-7.625057794363377
aF-7.136960421674942
aF-5.445465915678113
aF-9.405643962993306
aF-7.538983185592134
aF-8.002820299922206
aF-1.7133784974372515
aa(lp27
F-2.689256074107614
aF-5.298725446537377
aF-2.4745564812878205
aF-4.833836917958411
aF-3.5137919423797213
aF-6.993321167311784
aF-7.485797652409578
aF-6.012491914300058
aF-2.5046847975796442
aF-7.485797652409578
aF-7.318743567746412
aF-7.175642724105739
aF-6.839170487484526
aF-7.111104202968168
aF-6.1224928095143865
aF-1.2421604595361035
aF-7.485797652409578
aF-7.2446355955926895
aF-5.932449206626521
aF-1.974570741996537
aF-5.649586420610689
aF-7.175642724105739
aF-7.3987862754199485
aF-4.4241074110637895
aF-5.288573075073359
aF-7.3987862754199485
aF-1.3494459792258835
aa(lp28
F-4.888056580991866
aF-5.204023367282229
aF-6.7081007640585035
aF-7.363710025299383
aF-3.072313748425067
aF-8.179917298616555
aF-7.9760051092302335
aF-8.025766618789298
aF-6.8025916074794255
aF-9.519691644101554
aF-9.615001823905878
aF-5.372955905536426
aF-5.7712576592310265
aF-6.374364507256165
aF-1.4851637214254878
aF-5.232350384463155
aF-10.045784739998332
aF-6.930561488442802
aF-3.84871414389828
aF-4.298108071784906
aF-6.39014392736013
aF-9.566211659736446
aF-5.435244383835648
aF-8.782092700970775
aF-5.890513942324574
aF-8.01561424732528
aF-0.4307025983832672
aa(lp29
F-2.1008108476681993
aF-6.097175001530096
aF-6.320318552844306
aF-6.259693931027871
aF-0.8046242298763966
aF-5.3552376568007185
aF-6.320318552844306
aF-5.6917098934219315
aF-3.2757961151208828
aF-6.4538499454688285
aF-6.001864821725771
aF-4.27262570947905
aF-6.001864821725771
aF-5.834810737062605
aF-2.5591184371507434
aF-6.384857073981877
aF-6.695012002285717
aF-6.52795791762255
aF-6.259693931027871
aF-5.6917098934219315
aF-4.965772890038996
aF-6.695012002285717
aF-6.259693931027871
aF-6.52795791762255
aF-3.176705212476652
aF-2.7026666080187374
aF-1.924327377820052
aa(lp30
F-2.5380883562048897
aF-2.481784797124601
aF-3.1825862035130843
aF-3.517595968296668
aF-3.636642764606208
aF-3.207555022572303
aF-2.903259071300428
aF-3.385577420678479
aF-2.6254107175966133
aF-5.099665206359342
aF-5.252112946501871
aF-3.645808411849114
aF-3.1671187218595356
aF-3.428637450473834
aF-2.9763656508636585
aF-3.1965162547431025
aF-6.0549176175814186
aF-3.592486844287031
aF-2.838952279611944
aF-1.92878411625715
aF-4.389249124293089
aF-4.982761264989381
aF-3.0342636804203433
aF-8.179858624638252
aF-3.5232875832819213
aF-7.635190798138702
aF-5.766969764397176
aas.